target datalayout = "e-m:e-p270:32:32-p271:32:32-p272:64:64-i64:64-i128:128-f80:128-n8:16:32:64-S128"
target triple = "x86_64-pc-linux-gnu"

@duckdb_je_opt_background_thread = global i8 0, align 1
@pthread_create_fptr = internal global ptr null, align 8

; Function Attrs: nounwind uwtable
define internal zeroext i1 @pthread_create_fptr_init() #0 {
  %1 = alloca i1, align 1
  %2 = load ptr, ptr @pthread_create_fptr, align 8, !tbaa !10
  %3 = icmp ne ptr %2, null
  br i1 %3, label %4, label %5

4:                                                ; preds = %0
  store i1 false, ptr %1, align 1
  br label %10

5:                                                ; preds = %0
  store ptr null, ptr @pthread_create_fptr, align 8, !tbaa !10
  %6 = load ptr, ptr @pthread_create_fptr, align 8, !tbaa !10
  %7 = icmp eq ptr %6, null
  br i1 %7, label %8, label %9

8:                                                ; preds = %5
  store ptr @pthread_create, ptr @pthread_create_fptr, align 8, !tbaa !10
  br label %9

9:                                                ; preds = %8, %5
  store i1 false, ptr %1, align 1
  br label %10

10:                                               ; preds = %9, %4
  %11 = load i1, ptr %1, align 1
  ret i1 %11
}

; Function Attrs: nounwind uwtable
define zeroext i1 @duckdb_je_background_thread_boot0() #0 {
  %1 = alloca i1, align 1
  %2 = load i8, ptr @duckdb_je_opt_background_thread, align 1, !tbaa !15, !range !17, !noundef !18
  %3 = trunc i8 %2 to i1
  br i1 %3, label %4, label %7

4:                                                ; preds = %0
  %5 = call zeroext i1 @pthread_create_fptr_init()
  br i1 %5, label %6, label %7

6:                                                ; preds = %4
  store i1 true, ptr %1, align 1
  br label %8

7:                                                ; preds = %4, %0
  store i1 false, ptr %1, align 1
  br label %8

8:                                                ; preds = %7, %6
  %9 = load i1, ptr %1, align 1
  ret i1 %9
}