; Function Attrs: mustprogress nofree norecurse nosync nounwind willreturn memory(readwrite, argmem: none, inaccessiblemem: none) uwtable
define noundef zeroext i1 @duckdb_je_background_thread_boot0() local_unnamed_addr #7 {
  %1 = load i8, ptr @duckdb_je_opt_background_thread, align 1, !tbaa !25, !range !26, !noundef !27
  %2 = trunc nuw i8 %1 to i1
  %3 = load ptr, ptr @pthread_create_fptr, align 8
  %.not.i = icmp eq ptr %3, null
  %or.cond = select i1 %2, i1 %.not.i, i1 false
  br i1 %or.cond, label %4, label %pthread_create_fptr_init.exit

4:                                                ; preds = %0
  store ptr @pthread_create, ptr @pthread_create_fptr, align 8
  br label %pthread_create_fptr_init.exit

pthread_create_fptr_init.exit:                    ; preds = %4, %0
  ret i1 false
}